target datalayout = "e-m:e-p270:32:32-p271:32:32-p272:64:64-i64:64-i128:128-f80:128-n8:16:32:64-S128"
target triple = "x86_64-pc-linux-gnu"

%struct.UHashtable = type { ptr, ptr, ptr, ptr, ptr, ptr, i32, i32, i32, i32, float, float, i8, i8 }
%struct.UHashElement = type { i32, %union.UElement, %union.UElement }
%union.UElement = type { ptr }

; Function Attrs: mustprogress uwtable
define internal noundef ptr @_ZL11_uhash_findPK10UHashtable8UElementi(ptr noundef %0, ptr %1, i32 noundef %2) #0 {
  %4 = alloca ptr, align 8
  %5 = alloca %union.UElement, align 8
  %6 = alloca ptr, align 8
  %7 = alloca i32, align 4
  %8 = alloca i32, align 4
  %9 = alloca i32, align 4
  %10 = alloca i32, align 4
  %11 = alloca i32, align 4
  %12 = alloca i32, align 4
  %13 = alloca ptr, align 8
  %14 = alloca %union.UElement, align 8
  %15 = alloca %union.UElement, align 8
  %16 = alloca i32, align 4
  %17 = getelementptr inbounds nuw %union.UElement, ptr %5, i32 0, i32 0
  store ptr %1, ptr %17, align 8
  store ptr %0, ptr %6, align 8, !tbaa !11
  store i32 %2, ptr %7, align 4, !tbaa !7
  call void @llvm.lifetime.start.p0(i64 4, ptr %8) #9
  store i32 -1, ptr %8, align 4, !tbaa !7
  call void @llvm.lifetime.start.p0(i64 4, ptr %9) #9
  call void @llvm.lifetime.start.p0(i64 4, ptr %10) #9
  call void @llvm.lifetime.start.p0(i64 4, ptr %11) #9
  store i32 0, ptr %11, align 4, !tbaa !7
  call void @llvm.lifetime.start.p0(i64 4, ptr %12) #9
  call void @llvm.lifetime.start.p0(i64 8, ptr %13) #9
  %18 = load ptr, ptr %6, align 8, !tbaa !11
  %19 = getelementptr inbounds nuw %struct.UHashtable, ptr %18, i32 0, i32 0
  %20 = load ptr, ptr %19, align 8, !tbaa !25
  store ptr %20, ptr %13, align 8, !tbaa !26
  %21 = load i32, ptr %7, align 4, !tbaa !7
  %22 = and i32 %21, 2147483647
  store i32 %22, ptr %7, align 4, !tbaa !7
  %23 = load i32, ptr %7, align 4, !tbaa !7
  %24 = xor i32 %23, 67108864
  %25 = load ptr, ptr %6, align 8, !tbaa !11
  %26 = getelementptr inbounds nuw %struct.UHashtable, ptr %25, i32 0, i32 7
  %27 = load i32, ptr %26, align 4, !tbaa !31
  %28 = srem i32 %24, %27
  store i32 %28, ptr %9, align 4, !tbaa !7
  store i32 %28, ptr %10, align 4, !tbaa !7
  br label %29

29:                                               ; preds = %95, %3
  %30 = load ptr, ptr %13, align 8, !tbaa !26
  %31 = load i32, ptr %9, align 4, !tbaa !7
  %32 = sext i32 %31 to i64
  %33 = getelementptr inbounds %struct.UHashElement, ptr %30, i64 %32
  %34 = getelementptr inbounds nuw %struct.UHashElement, ptr %33, i32 0, i32 0
  %35 = load i32, ptr %34, align 8, !tbaa !32
  store i32 %35, ptr %12, align 4, !tbaa !7
  %36 = load i32, ptr %12, align 4, !tbaa !7
  %37 = load i32, ptr %7, align 4, !tbaa !7
  %38 = icmp eq i32 %36, %37
  br i1 %38, label %39, label %60

39:                                               ; preds = %29
  %40 = load ptr, ptr %6, align 8, !tbaa !11
  %41 = getelementptr inbounds nuw %struct.UHashtable, ptr %40, i32 0, i32 2
  %42 = load ptr, ptr %41, align 8, !tbaa !20
  call void @llvm.memcpy.p0.p0.i64(ptr align 8 %14, ptr align 8 %5, i64 8, i1 false), !tbaa.struct !44
  %43 = load ptr, ptr %13, align 8, !tbaa !26
  %44 = load i32, ptr %9, align 4, !tbaa !7
  %45 = sext i32 %44 to i64
  %46 = getelementptr inbounds %struct.UHashElement, ptr %43, i64 %45
  %47 = getelementptr inbounds nuw %struct.UHashElement, ptr %46, i32 0, i32 2
  call void @llvm.memcpy.p0.p0.i64(ptr align 8 %15, ptr align 8 %47, i64 8, i1 false), !tbaa.struct !44
  %48 = getelementptr inbounds nuw %union.UElement, ptr %14, i32 0, i32 0
  %49 = load ptr, ptr %48, align 8
  %50 = getelementptr inbounds nuw %union.UElement, ptr %15, i32 0, i32 0
  %51 = load ptr, ptr %50, align 8
  %52 = call noundef signext i8 %42(ptr %49, ptr %51)
  %53 = icmp ne i8 %52, 0
  br i1 %53, label %54, label %59

54:                                               ; preds = %39
  %55 = load ptr, ptr %13, align 8, !tbaa !26
  %56 = load i32, ptr %9, align 4, !tbaa !7
  %57 = sext i32 %56 to i64
  %58 = getelementptr inbounds %struct.UHashElement, ptr %55, i64 %57
  store ptr %58, ptr %4, align 8
  store i32 1, ptr %16, align 4
  br label %114

59:                                               ; preds = %39
  br label %76

60:                                               ; preds = %29
  %61 = load i32, ptr %12, align 4, !tbaa !7
  %62 = icmp slt i32 %61, 0
  br i1 %62, label %64, label %63

63:                                               ; preds = %60
  br label %75

64:                                               ; preds = %60
  %65 = load i32, ptr %12, align 4, !tbaa !7
  %66 = icmp eq i32 %65, -2147483647
  br i1 %66, label %67, label %68

67:                                               ; preds = %64
  br label %99

68:                                               ; preds = %64
  %69 = load i32, ptr %8, align 4, !tbaa !7
  %70 = icmp slt i32 %69, 0
  br i1 %70, label %71, label %73

71:                                               ; preds = %68
  %72 = load i32, ptr %9, align 4, !tbaa !7
  store i32 %72, ptr %8, align 4, !tbaa !7
  br label %73

73:                                               ; preds = %71, %68
  br label %74

74:                                               ; preds = %73
  br label %75

75:                                               ; preds = %74, %63
  br label %76

76:                                               ; preds = %75, %59
  %77 = load i32, ptr %11, align 4, !tbaa !7
  %78 = icmp eq i32 %77, 0
  br i1 %78, label %79, label %87

79:                                               ; preds = %76
  %80 = load i32, ptr %7, align 4, !tbaa !7
  %81 = load ptr, ptr %6, align 8, !tbaa !11
  %82 = getelementptr inbounds nuw %struct.UHashtable, ptr %81, i32 0, i32 7
  %83 = load i32, ptr %82, align 4, !tbaa !31
  %84 = sub nsw i32 %83, 1
  %85 = srem i32 %80, %84
  %86 = add nsw i32 %85, 1
  store i32 %86, ptr %11, align 4, !tbaa !7
  br label %87

87:                                               ; preds = %79, %76
  %88 = load i32, ptr %9, align 4, !tbaa !7
  %89 = load i32, ptr %11, align 4, !tbaa !7
  %90 = add nsw i32 %88, %89
  %91 = load ptr, ptr %6, align 8, !tbaa !11
  %92 = getelementptr inbounds nuw %struct.UHashtable, ptr %91, i32 0, i32 7
  %93 = load i32, ptr %92, align 4, !tbaa !31
  %94 = srem i32 %90, %93
  store i32 %94, ptr %9, align 4, !tbaa !7
  br label %95

95:                                               ; preds = %87
  %96 = load i32, ptr %9, align 4, !tbaa !7
  %97 = load i32, ptr %10, align 4, !tbaa !7
  %98 = icmp ne i32 %96, %97
  br i1 %98, label %29, label %99, !llvm.loop !46

99:                                               ; preds = %95, %67
  %100 = load i32, ptr %8, align 4, !tbaa !7
  %101 = icmp sge i32 %100, 0
  br i1 %101, label %102, label %104

102:                                              ; preds = %99
  %103 = load i32, ptr %8, align 4, !tbaa !7
  store i32 %103, ptr %9, align 4, !tbaa !7
  br label %109

104:                                              ; preds = %99
  %105 = load i32, ptr %12, align 4, !tbaa !7
  %106 = icmp ne i32 %105, -2147483647
  br i1 %106, label %107, label %108

107:                                              ; preds = %104
  call void @abort() #11
  unreachable

108:                                              ; preds = %104
  br label %109

109:                                              ; preds = %108, %102
  %110 = load ptr, ptr %13, align 8, !tbaa !26
  %111 = load i32, ptr %9, align 4, !tbaa !7
  %112 = sext i32 %111 to i64
  %113 = getelementptr inbounds %struct.UHashElement, ptr %110, i64 %112
  store ptr %113, ptr %4, align 8
  store i32 1, ptr %16, align 4
  br label %114

114:                                              ; preds = %109, %54
  call void @llvm.lifetime.end.p0(i64 8, ptr %13) #9
  call void @llvm.lifetime.end.p0(i64 4, ptr %12) #9
  call void @llvm.lifetime.end.p0(i64 4, ptr %11) #9
  call void @llvm.lifetime.end.p0(i64 4, ptr %10) #9
  call void @llvm.lifetime.end.p0(i64 4, ptr %9) #9
  call void @llvm.lifetime.end.p0(i64 4, ptr %8) #9
  %115 = load ptr, ptr %4, align 8
  ret ptr %115
}

; Function Attrs: mustprogress nounwind uwtable
define ptr @uhash_nextElement_77(ptr noundef %0, ptr noundef %1) #2 {
  %3 = alloca ptr, align 8
  %4 = alloca ptr, align 8
  %5 = alloca ptr, align 8
  %6 = alloca i32, align 4
  %7 = alloca i32, align 4
  store ptr %0, ptr %4, align 8, !tbaa !11
  store ptr %1, ptr %5, align 8, !tbaa !29
  call void @llvm.lifetime.start.p0(i64 4, ptr %6) #9
  %8 = load ptr, ptr %5, align 8, !tbaa !29
  %9 = load i32, ptr %8, align 4, !tbaa !7
  %10 = add nsw i32 %9, 1
  store i32 %10, ptr %6, align 4, !tbaa !7
  br label %11

11:                                               ; preds = %37, %2
  %12 = load i32, ptr %6, align 4, !tbaa !7
  %13 = load ptr, ptr %4, align 8, !tbaa !11
  %14 = getelementptr inbounds nuw %struct.UHashtable, ptr %13, i32 0, i32 7
  %15 = load i32, ptr %14, align 4, !tbaa !31
  %16 = icmp slt i32 %12, %15
  br i1 %16, label %17, label %40

17:                                               ; preds = %11
  %18 = load ptr, ptr %4, align 8, !tbaa !11
  %19 = getelementptr inbounds nuw %struct.UHashtable, ptr %18, i32 0, i32 0
  %20 = load ptr, ptr %19, align 8, !tbaa !25
  %21 = load i32, ptr %6, align 4, !tbaa !7
  %22 = sext i32 %21 to i64
  %23 = getelementptr inbounds %struct.UHashElement, ptr %20, i64 %22
  %24 = getelementptr inbounds nuw %struct.UHashElement, ptr %23, i32 0, i32 0
  %25 = load i32, ptr %24, align 8, !tbaa !32
  %26 = icmp slt i32 %25, 0
  br i1 %26, label %36, label %27

27:                                               ; preds = %17
  %28 = load i32, ptr %6, align 4, !tbaa !7
  %29 = load ptr, ptr %5, align 8, !tbaa !29
  store i32 %28, ptr %29, align 4, !tbaa !7
  %30 = load ptr, ptr %4, align 8, !tbaa !11
  %31 = getelementptr inbounds nuw %struct.UHashtable, ptr %30, i32 0, i32 0
  %32 = load ptr, ptr %31, align 8, !tbaa !25
  %33 = load i32, ptr %6, align 4, !tbaa !7
  %34 = sext i32 %33 to i64
  %35 = getelementptr inbounds %struct.UHashElement, ptr %32, i64 %34
  store ptr %35, ptr %3, align 8
  store i32 1, ptr %7, align 4
  br label %41

36:                                               ; preds = %17
  br label %37

37:                                               ; preds = %36
  %38 = load i32, ptr %6, align 4, !tbaa !7
  %39 = add nsw i32 %38, 1
  store i32 %39, ptr %6, align 4, !tbaa !7
  br label %11, !llvm.loop !34

40:                                               ; preds = %11
  store ptr null, ptr %3, align 8
  store i32 1, ptr %7, align 4
  br label %41

41:                                               ; preds = %40, %27
  call void @llvm.lifetime.end.p0(i64 4, ptr %6) #9
  %42 = load ptr, ptr %3, align 8
  ret ptr %42
}

; Function Attrs: mustprogress nounwind uwtable
define i32 @uhash_count_77(ptr noundef %0) #2 {
  %2 = alloca ptr, align 8
  store ptr %0, ptr %2, align 8, !tbaa !11
  %3 = load ptr, ptr %2, align 8, !tbaa !11
  %4 = getelementptr inbounds nuw %struct.UHashtable, ptr %3, i32 0, i32 6
  %5 = load i32, ptr %4, align 8, !tbaa !43
  ret i32 %5
}

; Function Attrs: mustprogress uwtable
define signext i8 @uhash_equals_77(ptr noundef %0, ptr noundef %1) #0 {
  %3 = alloca i8, align 1
  %4 = alloca ptr, align 8
  %5 = alloca ptr, align 8
  %6 = alloca i32, align 4
  %7 = alloca i32, align 4
  %8 = alloca i32, align 4
  %9 = alloca i32, align 4
  %10 = alloca i32, align 4
  %11 = alloca ptr, align 8
  %12 = alloca %union.UElement, align 8
  %13 = alloca %union.UElement, align 8
  %14 = alloca ptr, align 8
  %15 = alloca %union.UElement, align 8
  %16 = alloca %union.UElement, align 8
  %17 = alloca %union.UElement, align 8
  %18 = alloca %union.UElement, align 8
  %19 = alloca %union.UElement, align 8
  store ptr %0, ptr %4, align 8, !tbaa !11
  store ptr %1, ptr %5, align 8, !tbaa !11
  call void @llvm.lifetime.start.p0(i64 4, ptr %6) #9
  call void @llvm.lifetime.start.p0(i64 4, ptr %7) #9
  call void @llvm.lifetime.start.p0(i64 4, ptr %8) #9
  call void @llvm.lifetime.start.p0(i64 4, ptr %9) #9
  %20 = load ptr, ptr %4, align 8, !tbaa !11
  %21 = load ptr, ptr %5, align 8, !tbaa !11
  %22 = icmp eq ptr %20, %21
  br i1 %22, label %23, label %24

23:                                               ; preds = %2
  store i8 1, ptr %3, align 1
  store i32 1, ptr %10, align 4
  br label %104

24:                                               ; preds = %2
  %25 = load ptr, ptr %4, align 8, !tbaa !11
  %26 = icmp eq ptr %25, null
  br i1 %26, label %51, label %27

27:                                               ; preds = %24
  %28 = load ptr, ptr %5, align 8, !tbaa !11
  %29 = icmp eq ptr %28, null
  br i1 %29, label %51, label %30

30:                                               ; preds = %27
  %31 = load ptr, ptr %4, align 8, !tbaa !11
  %32 = getelementptr inbounds nuw %struct.UHashtable, ptr %31, i32 0, i32 2
  %33 = load ptr, ptr %32, align 8, !tbaa !20
  %34 = load ptr, ptr %5, align 8, !tbaa !11
  %35 = getelementptr inbounds nuw %struct.UHashtable, ptr %34, i32 0, i32 2
  %36 = load ptr, ptr %35, align 8, !tbaa !20
  %37 = icmp ne ptr %33, %36
  br i1 %37, label %51, label %38

38:                                               ; preds = %30
  %39 = load ptr, ptr %4, align 8, !tbaa !11
  %40 = getelementptr inbounds nuw %struct.UHashtable, ptr %39, i32 0, i32 3
  %41 = load ptr, ptr %40, align 8, !tbaa !21
  %42 = load ptr, ptr %5, align 8, !tbaa !11
  %43 = getelementptr inbounds nuw %struct.UHashtable, ptr %42, i32 0, i32 3
  %44 = load ptr, ptr %43, align 8, !tbaa !21
  %45 = icmp ne ptr %41, %44
  br i1 %45, label %51, label %46

46:                                               ; preds = %38
  %47 = load ptr, ptr %4, align 8, !tbaa !11
  %48 = getelementptr inbounds nuw %struct.UHashtable, ptr %47, i32 0, i32 3
  %49 = load ptr, ptr %48, align 8, !tbaa !21
  %50 = icmp eq ptr %49, null
  br i1 %50, label %51, label %52

51:                                               ; preds = %46, %38, %30, %27, %24
  store i8 0, ptr %3, align 1
  store i32 1, ptr %10, align 4
  br label %104

52:                                               ; preds = %46
  %53 = load ptr, ptr %4, align 8, !tbaa !11
  %54 = call i32 @uhash_count_77(ptr noundef %53)
  store i32 %54, ptr %6, align 4, !tbaa !7
  %55 = load ptr, ptr %5, align 8, !tbaa !11
  %56 = call i32 @uhash_count_77(ptr noundef %55)
  store i32 %56, ptr %7, align 4, !tbaa !7
  %57 = load i32, ptr %6, align 4, !tbaa !7
  %58 = load i32, ptr %7, align 4, !tbaa !7
  %59 = icmp ne i32 %57, %58
  br i1 %59, label %60, label %61

60:                                               ; preds = %52
  store i8 0, ptr %3, align 1
  store i32 1, ptr %10, align 4
  br label %104

61:                                               ; preds = %52
  store i32 -1, ptr %8, align 4, !tbaa !7
  store i32 0, ptr %9, align 4, !tbaa !7
  br label %62

62:                                               ; preds = %100, %61
  %63 = load i32, ptr %9, align 4, !tbaa !7
  %64 = load i32, ptr %6, align 4, !tbaa !7
  %65 = icmp slt i32 %63, %64
  br i1 %65, label %66, label %103

66:                                               ; preds = %62
  call void @llvm.lifetime.start.p0(i64 8, ptr %11) #9
  %67 = load ptr, ptr %4, align 8, !tbaa !11
  %68 = call ptr @uhash_nextElement_77(ptr noundef %67, ptr noundef %8)
  store ptr %68, ptr %11, align 8, !tbaa !26
  call void @llvm.lifetime.start.p0(i64 8, ptr %12) #9
  %69 = load ptr, ptr %11, align 8, !tbaa !26
  %70 = getelementptr inbounds nuw %struct.UHashElement, ptr %69, i32 0, i32 2
  call void @llvm.memcpy.p0.p0.i64(ptr align 8 %12, ptr align 8 %70, i64 8, i1 false), !tbaa.struct !44
  call void @llvm.lifetime.start.p0(i64 8, ptr %13) #9
  %71 = load ptr, ptr %11, align 8, !tbaa !26
  %72 = getelementptr inbounds nuw %struct.UHashElement, ptr %71, i32 0, i32 1
  call void @llvm.memcpy.p0.p0.i64(ptr align 8 %13, ptr align 8 %72, i64 8, i1 false), !tbaa.struct !44
  call void @llvm.lifetime.start.p0(i64 8, ptr %14) #9
  %73 = load ptr, ptr %5, align 8, !tbaa !11
  call void @llvm.memcpy.p0.p0.i64(ptr align 8 %15, ptr align 8 %12, i64 8, i1 false), !tbaa.struct !44
  %74 = load ptr, ptr %5, align 8, !tbaa !11
  %75 = getelementptr inbounds nuw %struct.UHashtable, ptr %74, i32 0, i32 1
  %76 = load ptr, ptr %75, align 8, !tbaa !19
  call void @llvm.memcpy.p0.p0.i64(ptr align 8 %16, ptr align 8 %12, i64 8, i1 false), !tbaa.struct !44
  %77 = getelementptr inbounds nuw %union.UElement, ptr %16, i32 0, i32 0
  %78 = load ptr, ptr %77, align 8
  %79 = call noundef i32 %76(ptr %78)
  %80 = getelementptr inbounds nuw %union.UElement, ptr %15, i32 0, i32 0
  %81 = load ptr, ptr %80, align 8
  %82 = call noundef ptr @_ZL11_uhash_findPK10UHashtable8UElementi(ptr noundef %73, ptr %81, i32 noundef %79)
  store ptr %82, ptr %14, align 8, !tbaa !26
  call void @llvm.lifetime.start.p0(i64 8, ptr %17) #9
  %83 = load ptr, ptr %14, align 8, !tbaa !26
  %84 = getelementptr inbounds nuw %struct.UHashElement, ptr %83, i32 0, i32 1
  call void @llvm.memcpy.p0.p0.i64(ptr align 8 %17, ptr align 8 %84, i64 8, i1 false), !tbaa.struct !44
  %85 = load ptr, ptr %4, align 8, !tbaa !11
  %86 = getelementptr inbounds nuw %struct.UHashtable, ptr %85, i32 0, i32 3
  %87 = load ptr, ptr %86, align 8, !tbaa !21
  call void @llvm.memcpy.p0.p0.i64(ptr align 8 %18, ptr align 8 %13, i64 8, i1 false), !tbaa.struct !44
  call void @llvm.memcpy.p0.p0.i64(ptr align 8 %19, ptr align 8 %17, i64 8, i1 false), !tbaa.struct !44
  %88 = getelementptr inbounds nuw %union.UElement, ptr %18, i32 0, i32 0
  %89 = load ptr, ptr %88, align 8
  %90 = getelementptr inbounds nuw %union.UElement, ptr %19, i32 0, i32 0
  %91 = load ptr, ptr %90, align 8
  %92 = call noundef signext i8 %87(ptr %89, ptr %91)
  %93 = sext i8 %92 to i32
  %94 = icmp eq i32 %93, 0
  br i1 %94, label %95, label %96

95:                                               ; preds = %66
  store i8 0, ptr %3, align 1
  store i32 1, ptr %10, align 4
  br label %97

96:                                               ; preds = %66
  store i32 0, ptr %10, align 4
  br label %97

97:                                               ; preds = %96, %95
  call void @llvm.lifetime.end.p0(i64 8, ptr %17) #9
  call void @llvm.lifetime.end.p0(i64 8, ptr %14) #9
  call void @llvm.lifetime.end.p0(i64 8, ptr %13) #9
  call void @llvm.lifetime.end.p0(i64 8, ptr %12) #9
  call void @llvm.lifetime.end.p0(i64 8, ptr %11) #9
  %98 = load i32, ptr %10, align 4
  switch i32 %98, label %104 [
    i32 0, label %99
  ]

99:                                               ; preds = %97
  br label %100

100:                                              ; preds = %99
  %101 = load i32, ptr %9, align 4, !tbaa !7
  %102 = add nsw i32 %101, 1
  store i32 %102, ptr %9, align 4, !tbaa !7
  br label %62, !llvm.loop !58

103:                                              ; preds = %62
  store i8 1, ptr %3, align 1
  store i32 1, ptr %10, align 4
  br label %104

104:                                              ; preds = %103, %97, %60, %51, %23
  call void @llvm.lifetime.end.p0(i64 4, ptr %9) #9
  call void @llvm.lifetime.end.p0(i64 4, ptr %8) #9
  call void @llvm.lifetime.end.p0(i64 4, ptr %7) #9
  call void @llvm.lifetime.end.p0(i64 4, ptr %6) #9
  %105 = load i8, ptr %3, align 1
  ret i8 %105
}