; Function Attrs: mustprogress uwtable
define signext range(i8 0, 2) i8 @uhash_equals_77(ptr noundef readonly %0, ptr noundef readonly %1) local_unnamed_addr #0 {
  %3 = icmp eq ptr %0, %1
  br i1 %3, label %.loopexit, label %4

4:                                                ; preds = %2
  %5 = icmp eq ptr %0, null
  %6 = icmp eq ptr %1, null
  %or.cond = or i1 %5, %6
  br i1 %or.cond, label %.loopexit, label %7

7:                                                ; preds = %4
  %8 = getelementptr inbounds nuw i8, ptr %0, i64 16
  %9 = load ptr, ptr %8, align 8, !tbaa !13
  %10 = getelementptr inbounds nuw i8, ptr %1, i64 16
  %11 = load ptr, ptr %10, align 8, !tbaa !13
  %.not = icmp eq ptr %9, %11
  br i1 %.not, label %12, label %.loopexit

12:                                               ; preds = %7
  %13 = getelementptr inbounds nuw i8, ptr %0, i64 24
  %14 = load ptr, ptr %13, align 8, !tbaa !14
  %15 = getelementptr inbounds nuw i8, ptr %1, i64 24
  %16 = load ptr, ptr %15, align 8, !tbaa !14
  %.not37 = icmp ne ptr %14, %16
  %17 = icmp eq ptr %14, null
  %or.cond40 = or i1 %17, %.not37
  br i1 %or.cond40, label %.loopexit, label %18

18:                                               ; preds = %12
  %19 = getelementptr inbounds nuw i8, ptr %0, i64 48
  %20 = load i32, ptr %19, align 8, !tbaa !26
  %21 = getelementptr inbounds nuw i8, ptr %1, i64 48
  %22 = load i32, ptr %21, align 8, !tbaa !26
  %.not38 = icmp eq i32 %20, %22
  br i1 %.not38, label %.preheader, label %.loopexit

.preheader:                                       ; preds = %18
  %23 = icmp sgt i32 %20, 0
  br i1 %23, label %.lr.ph, label %.loopexit

.lr.ph:                                           ; preds = %.preheader
  %24 = getelementptr inbounds nuw i8, ptr %0, i64 52
  %25 = getelementptr inbounds nuw i8, ptr %1, i64 8
  %26 = getelementptr inbounds nuw i8, ptr %1, i64 52
  br label %29

27:                                               ; preds = %_ZL11_uhash_findPK10UHashtable8UElementi.exit
  %28 = add nuw nsw i32 %.03153, 1
  %exitcond.not = icmp eq i32 %28, %20
  br i1 %exitcond.not, label %.loopexit, label %29, !llvm.loop !45

29:                                               ; preds = %.lr.ph, %27
  %.03153 = phi i32 [ 0, %.lr.ph ], [ %28, %27 ]
  %.04152 = phi i64 [ -1, %.lr.ph ], [ %indvars.iv.next.i, %27 ]
  %30 = load i32, ptr %24, align 4, !tbaa !20
  %sext = shl i64 %.04152, 32
  %31 = ashr exact i64 %sext, 32
  %32 = sext i32 %30 to i64
  %33 = load ptr, ptr %0, align 8, !tbaa !21
  br label %34

34:                                               ; preds = %34, %29
  %indvars.iv.i = phi i64 [ %indvars.iv.next.i, %34 ], [ %31, %29 ]
  %indvars.iv.next.i = add nsw i64 %indvars.iv.i, 1
  %35 = icmp slt i64 %indvars.iv.next.i, %32
  tail call void @llvm.assume(i1 %35)
  %36 = getelementptr inbounds %struct.UHashElement, ptr %33, i64 %indvars.iv.next.i
  %37 = load i32, ptr %36, align 8, !tbaa !22
  %38 = icmp slt i32 %37, 0
  br i1 %38, label %34, label %uhash_nextElement_77.exit, !llvm.loop !33

uhash_nextElement_77.exit:                        ; preds = %34
  %39 = getelementptr inbounds nuw i8, ptr %36, i64 16
  %.sroa.07.0.copyload = load ptr, ptr %39, align 8, !tbaa !34
  %40 = getelementptr inbounds nuw i8, ptr %36, i64 8
  %.sroa.06.0.copyload = load ptr, ptr %40, align 8, !tbaa !34
  %41 = load ptr, ptr %25, align 8, !tbaa !7
  %42 = tail call noundef i32 %41(ptr %.sroa.07.0.copyload)
  %43 = load ptr, ptr %1, align 8, !tbaa !21
  %44 = and i32 %42, 2147483647
  %45 = xor i32 %44, 67108864
  %46 = load i32, ptr %26, align 4, !tbaa !20
  %47 = srem i32 %45, %46
  br label %48

48:                                               ; preds = %68, %uhash_nextElement_77.exit
  %.pre70.i = phi i32 [ %46, %uhash_nextElement_77.exit ], [ %.pre.i, %68 ]
  %.036.i = phi i32 [ 0, %uhash_nextElement_77.exit ], [ %.137.i, %68 ]
  %.033.i = phi i32 [ %47, %uhash_nextElement_77.exit ], [ %70, %68 ]
  %.032.i = phi i32 [ -1, %uhash_nextElement_77.exit ], [ %.1.i, %68 ]
  %49 = zext nneg i32 %.033.i to i64
  %50 = getelementptr inbounds nuw %struct.UHashElement, ptr %43, i64 %49
  %51 = load i32, ptr %50, align 8, !tbaa !22
  %52 = icmp eq i32 %51, %44
  br i1 %52, label %53, label %57

53:                                               ; preds = %48
  %54 = load ptr, ptr %10, align 8, !tbaa !13
  %55 = getelementptr inbounds nuw i8, ptr %50, i64 16
  %.sroa.0.0.copyload.i = load ptr, ptr %55, align 8, !tbaa !34
  %56 = tail call noundef signext i8 %54(ptr %.sroa.07.0.copyload, ptr %.sroa.0.0.copyload.i)
  %.not.i = icmp eq i8 %56, 0
  br i1 %.not.i, label %._crit_edge.i, label %_ZL11_uhash_findPK10UHashtable8UElementi.exit

._crit_edge.i:                                    ; preds = %53
  %.pre.pre.i = load i32, ptr %26, align 4, !tbaa !20
  br label %62

57:                                               ; preds = %48
  %58 = icmp slt i32 %51, 0
  br i1 %58, label %59, label %62

59:                                               ; preds = %57
  %60 = icmp eq i32 %51, -2147483647
  %61 = icmp slt i32 %.032.i, 0
  %spec.select49.i = select i1 %61, i32 %.033.i, i32 %.032.i
  br i1 %60, label %.thread46.i, label %62

62:                                               ; preds = %59, %57, %._crit_edge.i
  %.pre.i = phi i32 [ %.pre.pre.i, %._crit_edge.i ], [ %.pre70.i, %57 ], [ %.pre70.i, %59 ]
  %.1.i = phi i32 [ %.032.i, %._crit_edge.i ], [ %.032.i, %57 ], [ %spec.select49.i, %59 ]
  %63 = icmp eq i32 %.036.i, 0
  br i1 %63, label %64, label %68

64:                                               ; preds = %62
  %65 = add nsw i32 %.pre.i, -1
  %66 = srem i32 %44, %65
  %67 = add nuw nsw i32 %66, 1
  br label %68

68:                                               ; preds = %64, %62
  %.137.i = phi i32 [ %67, %64 ], [ %.036.i, %62 ]
  %69 = add nuw nsw i32 %.137.i, %.033.i
  %70 = srem i32 %69, %.pre.i
  %.not41.i = icmp eq i32 %70, %47
  br i1 %.not41.i, label %71, label %48, !llvm.loop !37

71:                                               ; preds = %68
  %72 = icmp sgt i32 %.1.i, -1
  br i1 %72, label %.thread46.i, label %73

73:                                               ; preds = %71
  %.not42.i = icmp eq i32 %51, -2147483647
  br i1 %.not42.i, label %.thread46.i, label %74

74:                                               ; preds = %73
  tail call void @abort() #14
  unreachable

.thread46.i:                                      ; preds = %59, %73, %71
  %.235.i = phi i32 [ %47, %73 ], [ %.1.i, %71 ], [ %spec.select49.i, %59 ]
  %75 = zext nneg i32 %.235.i to i64
  br label %_ZL11_uhash_findPK10UHashtable8UElementi.exit

_ZL11_uhash_findPK10UHashtable8UElementi.exit:    ; preds = %53, %.thread46.i
  %76 = phi i64 [ %75, %.thread46.i ], [ %49, %53 ]
  %77 = getelementptr inbounds nuw %struct.UHashElement, ptr %43, i64 %76, i32 1
  %.sroa.03.0.copyload = load ptr, ptr %77, align 8, !tbaa !34
  %78 = load ptr, ptr %13, align 8, !tbaa !14
  %79 = tail call noundef signext i8 %78(ptr %.sroa.06.0.copyload, ptr %.sroa.03.0.copyload)
  %.not39 = icmp eq i8 %79, 0
  br i1 %.not39, label %.loopexit, label %27

.loopexit:                                        ; preds = %_ZL11_uhash_findPK10UHashtable8UElementi.exit, %27, %.preheader, %18, %4, %7, %12, %2
  %.0 = phi i8 [ 1, %2 ], [ 0, %12 ], [ 0, %7 ], [ 0, %4 ], [ 0, %18 ], [ 1, %.preheader ], [ 0, %_ZL11_uhash_findPK10UHashtable8UElementi.exit ], [ 1, %27 ]
  ret i8 %.0
}